target datalayout = "e-m:e-p270:32:32-p271:32:32-p272:64:64-i64:64-i128:128-f80:128-n8:16:32:64-S128"
target triple = "x86_64-pc-linux-gnu"

%struct.jv = type { i8, i8, i16, i32, %union.anon }
%union.anon = type { ptr }

@.str.166 = private unnamed_addr constant [28 x i8] c"trim input must be a string\00", align 1

; Function Attrs: inlinehint nounwind uwtable
define internal { i64, ptr } @ret_error(i64 %0, ptr %1, i64 %2, ptr %3) #7 {
  %5 = alloca %struct.jv, align 8
  %6 = alloca %struct.jv, align 8
  %7 = alloca %struct.jv, align 8
  %8 = getelementptr inbounds nuw { i64, ptr }, ptr %6, i32 0, i32 0
  store i64 %0, ptr %8, align 8
  %9 = getelementptr inbounds nuw { i64, ptr }, ptr %6, i32 0, i32 1
  store ptr %1, ptr %9, align 8
  %10 = getelementptr inbounds nuw { i64, ptr }, ptr %7, i32 0, i32 0
  store i64 %2, ptr %10, align 8
  %11 = getelementptr inbounds nuw { i64, ptr }, ptr %7, i32 0, i32 1
  store ptr %3, ptr %11, align 8
  %12 = getelementptr inbounds nuw { i64, ptr }, ptr %6, i32 0, i32 0
  %13 = load i64, ptr %12, align 8
  %14 = getelementptr inbounds nuw { i64, ptr }, ptr %6, i32 0, i32 1
  %15 = load ptr, ptr %14, align 8
  call void @jv_free(i64 %13, ptr %15)
  %16 = getelementptr inbounds nuw { i64, ptr }, ptr %7, i32 0, i32 0
  %17 = load i64, ptr %16, align 8
  %18 = getelementptr inbounds nuw { i64, ptr }, ptr %7, i32 0, i32 1
  %19 = load ptr, ptr %18, align 8
  %20 = call { i64, ptr } @jv_invalid_with_msg(i64 %17, ptr %19)
  %21 = getelementptr inbounds nuw { i64, ptr }, ptr %5, i32 0, i32 0
  %22 = extractvalue { i64, ptr } %20, 0
  store i64 %22, ptr %21, align 8
  %23 = getelementptr inbounds nuw { i64, ptr }, ptr %5, i32 0, i32 1
  %24 = extractvalue { i64, ptr } %20, 1
  store ptr %24, ptr %23, align 8
  %25 = load { i64, ptr }, ptr %5, align 8
  ret { i64, ptr } %25
}

; Function Attrs: nounwind uwtable
define internal { i64, ptr } @string_trim(i64 %0, ptr %1, i32 noundef %2) #0 {
  %4 = alloca %struct.jv, align 8
  %5 = alloca %struct.jv, align 8
  %6 = alloca i32, align 4
  %7 = alloca %struct.jv, align 8
  %8 = alloca i32, align 4
  %9 = alloca %struct.jv, align 8
  %10 = alloca ptr, align 8
  %11 = alloca ptr, align 8
  %12 = alloca ptr, align 8
  %13 = alloca ptr, align 8
  %14 = alloca i32, align 4
  %15 = alloca ptr, align 8
  %16 = alloca i32, align 4
  %17 = alloca ptr, align 8
  %18 = getelementptr inbounds nuw { i64, ptr }, ptr %5, i32 0, i32 0
  store i64 %0, ptr %18, align 8
  %19 = getelementptr inbounds nuw { i64, ptr }, ptr %5, i32 0, i32 1
  store ptr %1, ptr %19, align 8
  store i32 %2, ptr %6, align 4, !tbaa !10
  %20 = getelementptr inbounds nuw { i64, ptr }, ptr %5, i32 0, i32 0
  %21 = load i64, ptr %20, align 8
  %22 = getelementptr inbounds nuw { i64, ptr }, ptr %5, i32 0, i32 1
  %23 = load ptr, ptr %22, align 8
  %24 = call i32 @jv_get_kind(i64 %21, ptr %23)
  %25 = icmp ne i32 %24, 5
  br i1 %25, label %26, label %45

26:                                               ; preds = %3
  %27 = call { i64, ptr } @jv_string(ptr noundef @.str.166)
  %28 = getelementptr inbounds nuw { i64, ptr }, ptr %7, i32 0, i32 0
  %29 = extractvalue { i64, ptr } %27, 0
  store i64 %29, ptr %28, align 8
  %30 = getelementptr inbounds nuw { i64, ptr }, ptr %7, i32 0, i32 1
  %31 = extractvalue { i64, ptr } %27, 1
  store ptr %31, ptr %30, align 8
  %32 = getelementptr inbounds nuw { i64, ptr }, ptr %5, i32 0, i32 0
  %33 = load i64, ptr %32, align 8
  %34 = getelementptr inbounds nuw { i64, ptr }, ptr %5, i32 0, i32 1
  %35 = load ptr, ptr %34, align 8
  %36 = getelementptr inbounds nuw { i64, ptr }, ptr %7, i32 0, i32 0
  %37 = load i64, ptr %36, align 8
  %38 = getelementptr inbounds nuw { i64, ptr }, ptr %7, i32 0, i32 1
  %39 = load ptr, ptr %38, align 8
  %40 = call { i64, ptr } @ret_error(i64 %33, ptr %35, i64 %37, ptr %39)
  %41 = getelementptr inbounds nuw { i64, ptr }, ptr %4, i32 0, i32 0
  %42 = extractvalue { i64, ptr } %40, 0
  store i64 %42, ptr %41, align 8
  %43 = getelementptr inbounds nuw { i64, ptr }, ptr %4, i32 0, i32 1
  %44 = extractvalue { i64, ptr } %40, 1
  store ptr %44, ptr %43, align 8
  br label %151

45:                                               ; preds = %3
  call void @llvm.lifetime.start.p0(i64 4, ptr %8) #10
  %46 = getelementptr inbounds nuw { i64, ptr }, ptr %5, i32 0, i32 0
  %47 = load i64, ptr %46, align 8
  %48 = getelementptr inbounds nuw { i64, ptr }, ptr %5, i32 0, i32 1
  %49 = load ptr, ptr %48, align 8
  %50 = call { i64, ptr } @jv_copy(i64 %47, ptr %49)
  %51 = getelementptr inbounds nuw { i64, ptr }, ptr %9, i32 0, i32 0
  %52 = extractvalue { i64, ptr } %50, 0
  store i64 %52, ptr %51, align 8
  %53 = getelementptr inbounds nuw { i64, ptr }, ptr %9, i32 0, i32 1
  %54 = extractvalue { i64, ptr } %50, 1
  store ptr %54, ptr %53, align 8
  %55 = getelementptr inbounds nuw { i64, ptr }, ptr %9, i32 0, i32 0
  %56 = load i64, ptr %55, align 8
  %57 = getelementptr inbounds nuw { i64, ptr }, ptr %9, i32 0, i32 1
  %58 = load ptr, ptr %57, align 8
  %59 = call i32 @jv_string_length_bytes(i64 %56, ptr %58)
  store i32 %59, ptr %8, align 4, !tbaa !10
  call void @llvm.lifetime.start.p0(i64 8, ptr %10) #10
  %60 = getelementptr inbounds nuw { i64, ptr }, ptr %5, i32 0, i32 0
  %61 = load i64, ptr %60, align 8
  %62 = getelementptr inbounds nuw { i64, ptr }, ptr %5, i32 0, i32 1
  %63 = load ptr, ptr %62, align 8
  %64 = call ptr @jv_string_value(i64 %61, ptr %63)
  store ptr %64, ptr %10, align 8, !tbaa !12
  call void @llvm.lifetime.start.p0(i64 8, ptr %11) #10
  %65 = load ptr, ptr %10, align 8, !tbaa !12
  store ptr %65, ptr %11, align 8, !tbaa !12
  call void @llvm.lifetime.start.p0(i64 8, ptr %12) #10
  %66 = load ptr, ptr %11, align 8, !tbaa !12
  %67 = load i32, ptr %8, align 4, !tbaa !10
  %68 = sext i32 %67 to i64
  %69 = getelementptr inbounds i8, ptr %66, i64 %68
  store ptr %69, ptr %12, align 8, !tbaa !12
  call void @llvm.lifetime.start.p0(i64 8, ptr %13) #10
  %70 = load ptr, ptr %12, align 8, !tbaa !12
  store ptr %70, ptr %13, align 8, !tbaa !12
  call void @llvm.lifetime.start.p0(i64 4, ptr %14) #10
  %71 = load i32, ptr %6, align 4, !tbaa !10
  %72 = and i32 %71, 1
  %73 = icmp ne i32 %72, 0
  br i1 %73, label %74, label %92

74:                                               ; preds = %45
  br label %75

75:                                               ; preds = %90, %74
  call void @llvm.lifetime.start.p0(i64 8, ptr %15) #10
  %76 = load ptr, ptr %11, align 8, !tbaa !12
  %77 = load ptr, ptr %12, align 8, !tbaa !12
  %78 = call ptr @jvp_utf8_next(ptr noundef %76, ptr noundef %77, ptr noundef %14)
  store ptr %78, ptr %15, align 8, !tbaa !12
  %79 = load ptr, ptr %15, align 8, !tbaa !12
  %80 = icmp ne ptr %79, null
  br i1 %80, label %81, label %85

81:                                               ; preds = %75
  %82 = load i32, ptr %14, align 4, !tbaa !10
  %83 = call i32 @jvp_codepoint_is_whitespace(i32 noundef %82)
  %84 = icmp ne i32 %83, 0
  br i1 %84, label %86, label %85

85:                                               ; preds = %81, %75
  store i32 2, ptr %16, align 4
  br label %88

86:                                               ; preds = %81
  %87 = load ptr, ptr %15, align 8, !tbaa !12
  store ptr %87, ptr %11, align 8, !tbaa !12
  store i32 0, ptr %16, align 4
  br label %88

88:                                               ; preds = %86, %85
  call void @llvm.lifetime.end.p0(i64 8, ptr %15) #10
  %89 = load i32, ptr %16, align 4
  switch i32 %89, label %153 [
    i32 0, label %90
    i32 2, label %91
  ]

90:                                               ; preds = %88
  br label %75

91:                                               ; preds = %88
  br label %92

92:                                               ; preds = %91, %45
  %93 = load i32, ptr %6, align 4, !tbaa !10
  %94 = and i32 %93, 2
  %95 = icmp ne i32 %94, 0
  br i1 %95, label %96, label %124

96:                                               ; preds = %92
  %97 = load ptr, ptr %13, align 8, !tbaa !12
  %98 = load ptr, ptr %11, align 8, !tbaa !12
  %99 = icmp ugt ptr %97, %98
  br i1 %99, label %100, label %124

100:                                              ; preds = %96
  br label %101

101:                                              ; preds = %122, %100
  call void @llvm.lifetime.start.p0(i64 8, ptr %17) #10
  %102 = load ptr, ptr %13, align 8, !tbaa !12
  %103 = getelementptr inbounds i8, ptr %102, i64 -1
  %104 = load ptr, ptr %11, align 8, !tbaa !12
  %105 = call ptr @jvp_utf8_backtrack(ptr noundef %103, ptr noundef %104, ptr noundef null)
  store ptr %105, ptr %17, align 8, !tbaa !12
  %106 = load ptr, ptr %17, align 8, !tbaa !12
  %107 = load ptr, ptr %13, align 8, !tbaa !12
  %108 = call ptr @jvp_utf8_next(ptr noundef %106, ptr noundef %107, ptr noundef %14)
  %109 = load i32, ptr %14, align 4, !tbaa !10
  %110 = call i32 @jvp_codepoint_is_whitespace(i32 noundef %109)
  %111 = icmp ne i32 %110, 0
  br i1 %111, label %113, label %112

112:                                              ; preds = %101
  store i32 4, ptr %16, align 4
  br label %120

113:                                              ; preds = %101
  %114 = load ptr, ptr %17, align 8, !tbaa !12
  store ptr %114, ptr %13, align 8, !tbaa !12
  %115 = load ptr, ptr %17, align 8, !tbaa !12
  %116 = load ptr, ptr %11, align 8, !tbaa !12
  %117 = icmp eq ptr %115, %116
  br i1 %117, label %118, label %119

118:                                              ; preds = %113
  store i32 4, ptr %16, align 4
  br label %120

119:                                              ; preds = %113
  store i32 0, ptr %16, align 4
  br label %120

120:                                              ; preds = %119, %118, %112
  call void @llvm.lifetime.end.p0(i64 8, ptr %17) #10
  %121 = load i32, ptr %16, align 4
  switch i32 %121, label %153 [
    i32 0, label %122
    i32 4, label %123
  ]

122:                                              ; preds = %120
  br label %101

123:                                              ; preds = %120
  br label %124

124:                                              ; preds = %123, %96, %92
  %125 = load ptr, ptr %11, align 8, !tbaa !12
  %126 = load ptr, ptr %10, align 8, !tbaa !12
  %127 = icmp eq ptr %125, %126
  br i1 %127, label %128, label %133

128:                                              ; preds = %124
  %129 = load ptr, ptr %13, align 8, !tbaa !12
  %130 = load ptr, ptr %12, align 8, !tbaa !12
  %131 = icmp eq ptr %129, %130
  br i1 %131, label %132, label %133

132:                                              ; preds = %128
  call void @llvm.memcpy.p0.p0.i64(ptr align 8 %4, ptr align 8 %5, i64 16, i1 false), !tbaa.struct !4
  store i32 1, ptr %16, align 4
  br label %150

133:                                              ; preds = %128, %124
  %134 = load ptr, ptr %11, align 8, !tbaa !12
  %135 = load ptr, ptr %13, align 8, !tbaa !12
  %136 = load ptr, ptr %11, align 8, !tbaa !12
  %137 = ptrtoint ptr %135 to i64
  %138 = ptrtoint ptr %136 to i64
  %139 = sub i64 %137, %138
  %140 = trunc i64 %139 to i32
  %141 = call { i64, ptr } @jv_string_sized(ptr noundef %134, i32 noundef %140)
  %142 = getelementptr inbounds nuw { i64, ptr }, ptr %4, i32 0, i32 0
  %143 = extractvalue { i64, ptr } %141, 0
  store i64 %143, ptr %142, align 8
  %144 = getelementptr inbounds nuw { i64, ptr }, ptr %4, i32 0, i32 1
  %145 = extractvalue { i64, ptr } %141, 1
  store ptr %145, ptr %144, align 8
  %146 = getelementptr inbounds nuw { i64, ptr }, ptr %5, i32 0, i32 0
  %147 = load i64, ptr %146, align 8
  %148 = getelementptr inbounds nuw { i64, ptr }, ptr %5, i32 0, i32 1
  %149 = load ptr, ptr %148, align 8
  call void @jv_free(i64 %147, ptr %149)
  store i32 1, ptr %16, align 4
  br label %150

150:                                              ; preds = %133, %132
  call void @llvm.lifetime.end.p0(i64 4, ptr %14) #10
  call void @llvm.lifetime.end.p0(i64 8, ptr %13) #10
  call void @llvm.lifetime.end.p0(i64 8, ptr %12) #10
  call void @llvm.lifetime.end.p0(i64 8, ptr %11) #10
  call void @llvm.lifetime.end.p0(i64 8, ptr %10) #10
  call void @llvm.lifetime.end.p0(i64 4, ptr %8) #10
  br label %151

151:                                              ; preds = %150, %26
  %152 = load { i64, ptr }, ptr %4, align 8
  ret { i64, ptr } %152

153:                                              ; preds = %120, %88
  unreachable
}