; Function Attrs: nounwind uwtable
define internal fastcc { i64, ptr } @string_trim(i64 %0, ptr %1, i32 noundef range(i32 1, 4) %2) unnamed_addr #0 {
  %4 = alloca i32, align 4
  %5 = tail call i32 @jv_get_kind(i64 %0, ptr %1) #14
  %.not = icmp eq i32 %5, 5
  br i1 %.not, label %11, label %6

6:                                                ; preds = %3
  %7 = tail call { i64, ptr } @jv_string(ptr noundef nonnull @.str.166) #14
  %8 = extractvalue { i64, ptr } %7, 0
  %9 = extractvalue { i64, ptr } %7, 1
  tail call void @jv_free(i64 %0, ptr %1) #14
  %10 = tail call { i64, ptr } @jv_invalid_with_msg(i64 %8, ptr %9) #14
  br label %43

11:                                               ; preds = %3
  %12 = tail call { i64, ptr } @jv_copy(i64 %0, ptr %1) #14
  %13 = extractvalue { i64, ptr } %12, 0
  %14 = extractvalue { i64, ptr } %12, 1
  %15 = tail call i32 @jv_string_length_bytes(i64 %13, ptr %14) #14
  %16 = tail call ptr @jv_string_value(i64 %0, ptr %1) #14
  %17 = sext i32 %15 to i64
  %18 = getelementptr inbounds i8, ptr %16, i64 %17
  call void @llvm.lifetime.start.p0(i64 4, ptr nonnull %4) #14
  %19 = and i32 %2, 1
  %.not49 = icmp eq i32 %19, 0
  br i1 %.not49, label %.thread, label %.preheader62

.preheader62:                                     ; preds = %11, %21
  %.142 = phi ptr [ %20, %21 ], [ %16, %11 ]
  %20 = call ptr @jvp_utf8_next(ptr noundef %.142, ptr noundef %18, ptr noundef nonnull %4) #14
  %.not50 = icmp eq ptr %20, null
  br i1 %.not50, label %.thread, label %21

21:                                               ; preds = %.preheader62
  %22 = load i32, ptr %4, align 4, !tbaa !19
  %23 = call i32 @jvp_codepoint_is_whitespace(i32 noundef %22) #14
  %.not51 = icmp eq i32 %23, 0
  br i1 %.not51, label %.thread, label %.preheader62

.thread:                                          ; preds = %21, %.preheader62, %11
  %.041 = phi ptr [ %16, %11 ], [ %.142, %.preheader62 ], [ %.142, %21 ]
  %.not52 = icmp samesign ugt i32 %2, 1
  %24 = icmp ugt ptr %18, %.041
  %or.cond = select i1 %.not52, i1 %24, i1 false
  br i1 %or.cond, label %.preheader, label %.loopexit

.preheader:                                       ; preds = %.thread, %.preheader
  %.140 = phi ptr [ %.2, %.preheader ], [ %18, %.thread ]
  %25 = getelementptr inbounds i8, ptr %.140, i64 -1
  %26 = call ptr @jvp_utf8_backtrack(ptr noundef nonnull %25, ptr noundef %.041, ptr noundef null) #14
  %27 = call ptr @jvp_utf8_next(ptr noundef %26, ptr noundef %.140, ptr noundef nonnull %4) #14
  %28 = load i32, ptr %4, align 4, !tbaa !19
  %29 = call i32 @jvp_codepoint_is_whitespace(i32 noundef %28) #14
  %.not53 = icmp ne i32 %29, 0
  %30 = icmp ne ptr %26, %.041
  %.2 = select i1 %.not53, ptr %26, ptr %.140
  %.not61 = select i1 %.not53, i1 %30, i1 false
  br i1 %.not61, label %.preheader, label %.loopexit

.loopexit:                                        ; preds = %.preheader, %.thread
  %.039 = phi ptr [ %18, %.thread ], [ %.2, %.preheader ]
  %31 = icmp eq ptr %.041, %16
  %32 = icmp eq ptr %.039, %18
  %or.cond54 = select i1 %31, i1 %32, i1 false
  br i1 %or.cond54, label %33, label %36

33:                                               ; preds = %.loopexit
  %34 = insertvalue { i64, ptr } poison, i64 %0, 0
  %35 = insertvalue { i64, ptr } %34, ptr %1, 1
  br label %42

36:                                               ; preds = %.loopexit
  %37 = ptrtoint ptr %.039 to i64
  %38 = ptrtoint ptr %.041 to i64
  %39 = sub i64 %37, %38
  %40 = trunc i64 %39 to i32
  %41 = call { i64, ptr } @jv_string_sized(ptr noundef %.041, i32 noundef %40) #14
  call void @jv_free(i64 %0, ptr %1) #14
  br label %42

42:                                               ; preds = %36, %33
  %.merged = phi { i64, ptr } [ %35, %33 ], [ %41, %36 ]
  call void @llvm.lifetime.end.p0(i64 4, ptr nonnull %4) #14
  br label %43

43:                                               ; preds = %42, %6
  %.fca.1.insert.merged = phi { i64, ptr } [ %10, %6 ], [ %.merged, %42 ]
  ret { i64, ptr } %.fca.1.insert.merged
}